target datalayout = "e-m:e-p270:32:32-p271:32:32-p272:64:64-i64:64-i128:128-f80:128-n8:16:32:64-S128"
target triple = "x86_64-pc-linux-gnu"

%"struct.cv::ximgproc::SparseMatch" = type { %"class.cv::Point_", %"class.cv::Point_" }
%"class.cv::Point_" = type { float, float }

; Function Attrs: mustprogress nounwind uwtable
define hidden noundef zeroext i1 @_ZN2cv8ximgprocltERKNS0_11SparseMatchES3_(ptr noundef nonnull align 4 dereferenceable(16) %0, ptr noundef nonnull align 4 dereferenceable(16) %1) #12 {
  %3 = alloca i1, align 1
  %4 = alloca ptr, align 8
  %5 = alloca ptr, align 8
  store ptr %0, ptr %4, align 8, !tbaa !78
  store ptr %1, ptr %5, align 8, !tbaa !78
  %6 = load ptr, ptr %4, align 8, !tbaa !78
  %7 = getelementptr inbounds nuw %"struct.cv::ximgproc::SparseMatch", ptr %6, i32 0, i32 0
  %8 = getelementptr inbounds nuw %"class.cv::Point_", ptr %7, i32 0, i32 1
  %9 = load float, ptr %8, align 4, !tbaa !88
  %10 = fadd float %9, 5.000000e-01
  %11 = fptosi float %10 to i32
  %12 = load ptr, ptr %5, align 8, !tbaa !78
  %13 = getelementptr inbounds nuw %"struct.cv::ximgproc::SparseMatch", ptr %12, i32 0, i32 0
  %14 = getelementptr inbounds nuw %"class.cv::Point_", ptr %13, i32 0, i32 1
  %15 = load float, ptr %14, align 4, !tbaa !88
  %16 = fadd float %15, 5.000000e-01
  %17 = fptosi float %16 to i32
  %18 = icmp ne i32 %11, %17
  br i1 %18, label %19, label %29

19:                                               ; preds = %2
  %20 = load ptr, ptr %4, align 8, !tbaa !78
  %21 = getelementptr inbounds nuw %"struct.cv::ximgproc::SparseMatch", ptr %20, i32 0, i32 0
  %22 = getelementptr inbounds nuw %"class.cv::Point_", ptr %21, i32 0, i32 1
  %23 = load float, ptr %22, align 4, !tbaa !88
  %24 = load ptr, ptr %5, align 8, !tbaa !78
  %25 = getelementptr inbounds nuw %"struct.cv::ximgproc::SparseMatch", ptr %24, i32 0, i32 0
  %26 = getelementptr inbounds nuw %"class.cv::Point_", ptr %25, i32 0, i32 1
  %27 = load float, ptr %26, align 4, !tbaa !88
  %28 = fcmp olt float %23, %27
  store i1 %28, ptr %3, align 1
  br label %39

29:                                               ; preds = %2
  %30 = load ptr, ptr %4, align 8, !tbaa !78
  %31 = getelementptr inbounds nuw %"struct.cv::ximgproc::SparseMatch", ptr %30, i32 0, i32 0
  %32 = getelementptr inbounds nuw %"class.cv::Point_", ptr %31, i32 0, i32 0
  %33 = load float, ptr %32, align 4, !tbaa !85
  %34 = load ptr, ptr %5, align 8, !tbaa !78
  %35 = getelementptr inbounds nuw %"struct.cv::ximgproc::SparseMatch", ptr %34, i32 0, i32 0
  %36 = getelementptr inbounds nuw %"class.cv::Point_", ptr %35, i32 0, i32 0
  %37 = load float, ptr %36, align 4, !tbaa !85
  %38 = fcmp olt float %33, %37
  store i1 %38, ptr %3, align 1
  br label %39

39:                                               ; preds = %29, %19
  %40 = load i1, ptr %3, align 1
  ret i1 %40
}