; Function Attrs: mustprogress nofree norecurse nosync nounwind willreturn memory(argmem: read) uwtable
define hidden noundef zeroext i1 @_ZN2cv8ximgprocltERKNS0_11SparseMatchES3_(ptr noundef nonnull readonly align 4 captures(none) dereferenceable(16) %0, ptr noundef nonnull readonly align 4 captures(none) dereferenceable(16) %1) local_unnamed_addr #16 {
  %3 = getelementptr inbounds nuw i8, ptr %0, i64 4
  %4 = load float, ptr %3, align 4, !tbaa !94
  %5 = fadd float %4, 5.000000e-01
  %6 = fptosi float %5 to i32
  %7 = getelementptr inbounds nuw i8, ptr %1, i64 4
  %8 = load float, ptr %7, align 4, !tbaa !94
  %9 = fadd float %8, 5.000000e-01
  %10 = fptosi float %9 to i32
  %.not = icmp eq i32 %6, %10
  %11 = fcmp olt float %4, %8
  %12 = load float, ptr %0, align 4
  %13 = load float, ptr %1, align 4
  %14 = fcmp olt float %12, %13
  %.0 = select i1 %.not, i1 %14, i1 %11
  ret i1 %.0
}